160c:  3182           sub   #0x8, sp
160e:  3c40 ea49      mov   #0x49ea, r12
1612:  004d           br    r13

1856:  3240 0080      mov   #0x8000, sr
185a:  3c40 ca48      mov   #0x48ca, r12
185e:  004d           br    r13

1736:  b140 5700 0600 mov   #0x0057, 0x0006(sp)
173c:  3c40 8448      mov   #0x4884, r12
1740:  004d           br    r13

16f0:  b012 1000      call  #0x0010
16f4:  3c40 584d      mov   #0x4d58, r12
16f8:  004d           br    r13

1bc4:  b140 6800 0600 mov   #0x0068, 0x0006(sp)
1bca:  3c40 9c45      mov   #0x459c, r12
1bce:  004d           br    r13

1408:  b012 1000      call  #0x0010
140c:  3c40 244c      mov   #0x4c24, r12
1410:  004d           br    r13

1a90:  b140 6100 0600 mov   #0x0061, 0x0006(sp)
1a96:  3c40 7247      mov   #0x4772, r12
1a9a:  004d           br    r13

15de:  b012 1000      call  #0x0010
15e2:  3c40 0a47      mov   #0x470a, r12
15e6:  004d           br    r13

1576:  b140 7400 0600 mov   #0x0074, 0x0006(sp)
157c:  3c40 6649      mov   #0x4966, r12
1580:  004d           br    r13

17d2:  b012 1000      call  #0x0010
17d6:  3c40 9a4b      mov   #0x4b9a, r12
17da:  004d           br    r13

1a06:  b140 2700 0600 mov   #0x0027, 0x0006(sp)
1a0c:  3c40 ce4b      mov   #0x4bce, r12
1a10:  004d           br    r13

1a3a:  b012 1000      call  #0x0010
1a3e:  3c40 8446      mov   #0x4684, r12
1a42:  004d           br    r13

14f0:  b140 7300 0600 mov   #0x0073, 0x0006(sp)
14f6:  3c40 9e4d      mov   #0x4d9e, r12
14fa:  004d           br    r13

1c0a:  b012 1000      call  #0x0010
1c0e:  3c40 1449      mov   #0x4914, r12
1c12:  004d           br    r13

1780:  b140 2000 0600 mov   #0x0020, 0x0006(sp)
1786:  3c40 a84d      mov   #0x4da8, r12
178a:  004d           br    r13

1c14:  b012 1000      call  #0x0010
1c18:  3c40 d645      mov   #0x45d6, r12
1c1c:  004d           br    r13

1442:  b140 7400 0600 mov   #0x0074, 0x0006(sp)
1448:  3c40 4246      mov   #0x4642, r12
144c:  004d           br    r13

14ae:  b012 1000      call  #0x0010
14b2:  3c40 b648      mov   #0x48b6, r12
14b6:  004d           br    r13

1722:  b140 6800 0600 mov   #0x0068, 0x0006(sp)
1728:  3c40 e846      mov   #0x46e8, r12
172c:  004d           br    r13

1554:  b012 1000      call  #0x0010
1558:  3c40 e84a      mov   #0x4ae8, r12
155c:  004d           br    r13

1954:  b140 6500 0600 mov   #0x0065, 0x0006(sp)
195a:  3c40 3848      mov   #0x4838, r12
195e:  004d           br    r13

16a4:  b012 1000      call  #0x0010
16a8:  3c40 7e4d      mov   #0x4d7e, r12
16ac:  004d           br    r13

1bea:  b140 2000 0600 mov   #0x0020, 0x0006(sp)
1bf0:  3c40 f248      mov   #0x48f2, r12
1bf4:  004d           br    r13

175e:  b012 1000      call  #0x0010
1762:  3c40 7846      mov   #0x4678, r12
1766:  004d           br    r13

14e4:  b140 7000 0600 mov   #0x0070, 0x0006(sp)
14ea:  3c40 5e48      mov   #0x485e, r12
14ee:  004d           br    r13

16ca:  b012 1000      call  #0x0010
16ce:  3c40 3249      mov   #0x4932, r12
16d2:  004d           br    r13

179e:  b140 6100 0600 mov   #0x0061, 0x0006(sp)
17a4:  3c40 ac48      mov   #0x48ac, r12
17a8:  004d           br    r13

1718:  b012 1000      call  #0x0010
171c:  3c40 9a4c      mov   #0x4c9a, r12
1720:  004d           br    r13

1b06:  b140 7300 0600 mov   #0x0073, 0x0006(sp)
1b0c:  3c40 1e4a      mov   #0x4a1e, r12
1b10:  004d           br    r13

188a:  b012 1000      call  #0x0010
188e:  3c40 d647      mov   #0x47d6, r12
1892:  004d           br    r13

1642:  b140 7300 0600 mov   #0x0073, 0x0006(sp)
1648:  3c40 9248      mov   #0x4892, r12
164c:  004d           br    r13

16fe:  b012 1000      call  #0x0010
1702:  3c40 744b      mov   #0x4b74, r12
1706:  004d           br    r13

19e0:  b140 7700 0600 mov   #0x0077, 0x0006(sp)
19e6:  3c40 ca49      mov   #0x49ca, r12
19ea:  004d           br    r13

1836:  b012 1000      call  #0x0010
183a:  3c40 3a4b      mov   #0x4b3a, r12
183e:  004d           br    r13

19a6:  b140 6f00 0600 mov   #0x006f, 0x0006(sp)
19ac:  3c40 b646      mov   #0x46b6, r12
19b0:  004d           br    r13

1522:  b012 1000      call  #0x0010
1526:  3c40 464b      mov   #0x4b46, r12
152a:  004d           br    r13

19b2:  b140 7200 0600 mov   #0x0072, 0x0006(sp)
19b8:  3c40 7248      mov   #0x4872, r12
19bc:  004d           br    r13

16de:  b012 1000      call  #0x0010
16e2:  3c40 d446      mov   #0x46d4, r12
16e6:  004d           br    r13

1540:  b140 6400 0600 mov   #0x0064, 0x0006(sp)
1546:  3c40 184d      mov   #0x4d18, r12
154a:  004d           br    r13

1b84:  b012 1000      call  #0x0010
1b88:  3c40 d44a      mov   #0x4ad4, r12
1b8c:  004d           br    r13

1940:  b140 3f00 0600 mov   #0x003f, 0x0006(sp)
1946:  3c40 5c4c      mov   #0x4c5c, r12
194a:  004d           br    r13

1ac8:  b012 1000      call  #0x0010
1acc:  3c40 384a      mov   #0x4a38, r12
1ad0:  004d           br    r13

18a4:  b140 0026 0600 mov   #0x2600, 0x0006(sp)
18aa:  3c40 684b      mov   #0x4b68, r12
18ae:  004d           br    r13

19d4:  b140 0001 0800 mov   #0x0100, 0x0008(sp)
19da:  3c40 ac4a      mov   #0x4aac, r12
19de:  004d           br    r13

1918:  3240 0082      mov   #0x8200, sr
191c:  3c40 1c48      mov   #0x481c, r12
1920:  004d           br    r13

1688:  b012 1000      call  #0x0010
168c:  3c40 144a      mov   #0x4a14, r12
1690:  004d           br    r13

1880:  3540 0026      mov   #0x2600, r5
1884:  3c40 8c47      mov   #0x478c, r12
1888:  004d           br    r13

15f8:  0643           clr   r6
15fa:  3c40 184b      mov   #0x4b18, r12
15fe:  004d           br    r13

1984:  2455           add   @r5, r4
1986:  3c40 3a46      mov   #0x463a, r12
198a:  004d           br    r13

144e:  0e5f           add   r15, r14
1450:  3c40 c245      mov   #0x45c2, r12
1454:  004d           br    r13

142e:  4f93           tst.b r15
1430:  3c40 0a47      mov   #0x470a, r12
1434:  004d           br    r13
